; Function Attrs: nounwind uwtable
define ptr @l_Lean_Elab_Term_runTactic___lambda__2(i8 noundef zeroext %0, ptr noundef %1, ptr noundef %2, ptr noundef %3, ptr noundef %4, ptr noundef %5, ptr noundef %6, ptr noundef %7, ptr noundef %8, ptr readnone captures(none) %9, ptr noundef %10, ptr noundef %11, ptr noundef %12) local_unnamed_addr #0 {
  %14 = icmp eq i8 %0, 0
  br i1 %14, label %15, label %26

15:                                               ; preds = %13
  %16 = ptrtoint ptr %8 to i64
  %17 = and i64 %16, 1
  %.not60 = icmp eq i64 %17, 0
  br i1 %.not60, label %18, label %lean_dec.exit45

18:                                               ; preds = %15
  %19 = load i32, ptr %8, align 4, !tbaa !7
  %20 = icmp sgt i32 %19, 1
  br i1 %20, label %21, label %23, !prof !12

21:                                               ; preds = %18
  %22 = add nsw i32 %19, -1
  store i32 %22, ptr %8, align 4, !tbaa !7
  br label %lean_dec.exit45

23:                                               ; preds = %18
  %.not.i = icmp eq i32 %19, 0
  br i1 %.not.i, label %lean_dec.exit45, label %24

24:                                               ; preds = %23
  tail call void @lean_dec_ref_cold(ptr noundef nonnull %8) #7
  br label %lean_dec.exit45

lean_dec.exit45:                                  ; preds = %24, %23, %21, %15
  %25 = tail call ptr @l_Lean_Elab_Term_runTactic___lambda__1(i8 noundef zeroext 0, ptr noundef %1, ptr noundef %2, ptr nonnull poison, ptr noundef %3, ptr noundef %4, ptr noundef %5, ptr noundef %6, ptr noundef %10, ptr noundef %11, ptr noundef %12)
  br label %lean_dec.exit

26:                                               ; preds = %13
  %27 = ptrtoint ptr %10 to i64
  %28 = and i64 %27, 1
  %.not = icmp eq i64 %28, 0
  br i1 %.not, label %29, label %lean_inc.exit43

29:                                               ; preds = %26
  %.val.i = load i32, ptr %10, align 4, !tbaa !7
  %30 = icmp sgt i32 %.val.i, 0
  br i1 %30, label %31, label %33, !prof !12

31:                                               ; preds = %29
  %32 = add nuw i32 %.val.i, 1
  store i32 %32, ptr %10, align 4, !tbaa !7
  br label %lean_inc.exit43

33:                                               ; preds = %29
  %.not.i50 = icmp eq i32 %.val.i, 0
  br i1 %.not.i50, label %lean_inc.exit43, label %34

34:                                               ; preds = %33
  tail call void @lean_inc_ref_cold(ptr noundef nonnull %10) #7
  br label %lean_inc.exit43

lean_inc.exit43:                                  ; preds = %34, %33, %31, %26
  %35 = tail call ptr @l___private_Lean_Elab_SyntheticMVars_0__Lean_Elab_Term_TacticMVarKind_logError(ptr noundef %7, ptr noundef %8, ptr noundef %3, ptr noundef %4, ptr noundef %5, ptr noundef %6, ptr noundef %10, ptr noundef %11, ptr noundef %12)
  %36 = getelementptr inbounds nuw i8, ptr %35, i64 8
  %37 = load ptr, ptr %36, align 8, !tbaa !10
  %38 = ptrtoint ptr %37 to i64
  %39 = and i64 %38, 1
  %.not57 = icmp eq i64 %39, 0
  br i1 %.not57, label %40, label %lean_inc.exit42

40:                                               ; preds = %lean_inc.exit43
  %.val.i51 = load i32, ptr %37, align 4, !tbaa !7
  %41 = icmp sgt i32 %.val.i51, 0
  br i1 %41, label %42, label %44, !prof !12

42:                                               ; preds = %40
  %43 = add nuw i32 %.val.i51, 1
  store i32 %43, ptr %37, align 4, !tbaa !7
  br label %lean_inc.exit42

44:                                               ; preds = %40
  %.not.i52 = icmp eq i32 %.val.i51, 0
  br i1 %.not.i52, label %lean_inc.exit42, label %45

45:                                               ; preds = %44
  tail call void @lean_inc_ref_cold(ptr noundef nonnull %37) #7
  br label %lean_inc.exit42

lean_inc.exit42:                                  ; preds = %45, %44, %42, %lean_inc.exit43
  %46 = getelementptr inbounds nuw i8, ptr %35, i64 16
  %47 = load ptr, ptr %46, align 8, !tbaa !10
  %48 = ptrtoint ptr %47 to i64
  %49 = and i64 %48, 1
  %.not58 = icmp eq i64 %49, 0
  br i1 %.not58, label %50, label %lean_inc.exit

50:                                               ; preds = %lean_inc.exit42
  %.val.i54 = load i32, ptr %47, align 4, !tbaa !7
  %51 = icmp sgt i32 %.val.i54, 0
  br i1 %51, label %52, label %54, !prof !12

52:                                               ; preds = %50
  %53 = add nuw i32 %.val.i54, 1
  store i32 %53, ptr %47, align 4, !tbaa !7
  br label %lean_inc.exit

54:                                               ; preds = %50
  %.not.i55 = icmp eq i32 %.val.i54, 0
  br i1 %.not.i55, label %lean_inc.exit, label %55

55:                                               ; preds = %54
  tail call void @lean_inc_ref_cold(ptr noundef nonnull %47) #7
  br label %lean_inc.exit

lean_inc.exit:                                    ; preds = %55, %54, %52, %lean_inc.exit42
  %56 = ptrtoint ptr %35 to i64
  %57 = and i64 %56, 1
  %.not59 = icmp eq i64 %57, 0
  br i1 %.not59, label %58, label %lean_dec.exit44

58:                                               ; preds = %lean_inc.exit
  %59 = load i32, ptr %35, align 4, !tbaa !7
  %60 = icmp sgt i32 %59, 1
  br i1 %60, label %61, label %63, !prof !12

61:                                               ; preds = %58
  %62 = add nsw i32 %59, -1
  store i32 %62, ptr %35, align 4, !tbaa !7
  br label %lean_dec.exit44

63:                                               ; preds = %58
  %.not.i46 = icmp eq i32 %59, 0
  br i1 %.not.i46, label %lean_dec.exit44, label %64

64:                                               ; preds = %63
  tail call void @lean_dec_ref_cold(ptr noundef nonnull %35) #7
  br label %lean_dec.exit44

lean_dec.exit44:                                  ; preds = %64, %63, %61, %lean_inc.exit
  %65 = tail call ptr @l_Lean_Elab_Term_runTactic___lambda__1(i8 noundef zeroext %0, ptr noundef %1, ptr noundef %2, ptr poison, ptr noundef %3, ptr noundef %4, ptr noundef %5, ptr noundef %6, ptr noundef %10, ptr noundef %11, ptr noundef %47)
  br i1 %.not57, label %66, label %lean_dec.exit

66:                                               ; preds = %lean_dec.exit44
  %67 = load i32, ptr %37, align 4, !tbaa !7
  %68 = icmp sgt i32 %67, 1
  br i1 %68, label %69, label %71, !prof !12

69:                                               ; preds = %66
  %70 = add nsw i32 %67, -1
  store i32 %70, ptr %37, align 4, !tbaa !7
  br label %lean_dec.exit

71:                                               ; preds = %66
  %.not.i48 = icmp eq i32 %67, 0
  br i1 %.not.i48, label %lean_dec.exit, label %72

72:                                               ; preds = %71
  tail call void @lean_dec_ref_cold(ptr noundef nonnull %37) #7
  br label %lean_dec.exit

lean_dec.exit:                                    ; preds = %lean_dec.exit44, %69, %71, %72, %lean_dec.exit45
  %.0 = phi ptr [ %25, %lean_dec.exit45 ], [ %65, %72 ], [ %65, %71 ], [ %65, %69 ], [ %65, %lean_dec.exit44 ]
  ret ptr %.0
}